target datalayout = "e-m:e-p270:32:32-p271:32:32-p272:64:64-i64:64-i128:128-f80:128-n8:16:32:64-S128"
target triple = "x86_64-pc-linux-gnu"

@hf_docsis_rngrsp_trans_eq_enc_scdma_tdma_main_tap_location = internal global i32 0, align 4
@hf_docsis_rngrsp_trans_eq_enc_scdma_tdma_number_of_forward_taps_per_symbol = internal global i32 0, align 4
@hf_docsis_rngrsp_trans_eq_enc_scdma_tdma_number_of_forward_taps_n = internal global i32 0, align 4
@hf_docsis_rngrsp_trans_eq_enc_scdma_tdma_reserved = internal global i32 0, align 4
@hf_docsis_rngrsp_trans_eq_enc_coef_real = internal global i32 0, align 4
@hf_docsis_rngrsp_trans_eq_enc_coef_imag = internal global i32 0, align 4
@ett_docsis_rngrsp_tlv_transmit_equalization_encodings = internal global i32 0, align 4
@ett_docsis_rngrsp_tlv_transmit_equalization_encodings_coef = internal global i32 0, align 4
@.str.2157 = private unnamed_addr constant [9 x i8] c"Tap %d: \00", align 1
@.str.2158 = private unnamed_addr constant [19 x i8] c"real: %f, imag: %f\00", align 1

; Function Attrs: null_pointer_is_valid sspstrong uwtable
define internal void @dissect_rngrsp_transmit_equalization_encodings_scdma_tdma(ptr noundef %0, ptr noundef %1, i32 noundef %2, i16 noundef zeroext %3) #0 {
  %5 = alloca ptr, align 8
  %6 = alloca ptr, align 8
  %7 = alloca i32, align 4
  %8 = alloca i16, align 2
  %9 = alloca i16, align 2
  %10 = alloca ptr, align 8
  %11 = alloca ptr, align 8
  %12 = alloca i32, align 4
  %13 = alloca i32, align 4
  store ptr %0, ptr %5, align 8
  store ptr %1, ptr %6, align 8
  store i32 %2, ptr %7, align 4
  store i16 %3, ptr %8, align 2
  call void @llvm.lifetime.start.p0(i64 2, ptr %9) #6
  call void @llvm.lifetime.start.p0(i64 8, ptr %10) #6
  call void @llvm.lifetime.start.p0(i64 8, ptr %11) #6
  %14 = load ptr, ptr %6, align 8
  %15 = load i32, ptr @ett_docsis_rngrsp_tlv_transmit_equalization_encodings, align 4
  %16 = call ptr @proto_item_add_subtree(ptr noundef %14, i32 noundef %15)
  store ptr %16, ptr %10, align 8
  %17 = load ptr, ptr %10, align 8
  %18 = load i32, ptr @hf_docsis_rngrsp_trans_eq_enc_scdma_tdma_main_tap_location, align 4
  %19 = load ptr, ptr %5, align 8
  %20 = load i32, ptr %7, align 4
  %21 = call ptr @proto_tree_add_item(ptr noundef %17, i32 noundef %18, ptr noundef %19, i32 noundef %20, i32 noundef 1, i32 noundef 0)
  %22 = load ptr, ptr %10, align 8
  %23 = load i32, ptr @hf_docsis_rngrsp_trans_eq_enc_scdma_tdma_number_of_forward_taps_per_symbol, align 4
  %24 = load ptr, ptr %5, align 8
  %25 = load i32, ptr %7, align 4
  %26 = add i32 %25, 1
  %27 = call ptr @proto_tree_add_item(ptr noundef %22, i32 noundef %23, ptr noundef %24, i32 noundef %26, i32 noundef 1, i32 noundef 0)
  %28 = load ptr, ptr %10, align 8
  %29 = load i32, ptr @hf_docsis_rngrsp_trans_eq_enc_scdma_tdma_number_of_forward_taps_n, align 4
  %30 = load ptr, ptr %5, align 8
  %31 = load i32, ptr %7, align 4
  %32 = add i32 %31, 2
  %33 = call ptr @proto_tree_add_item(ptr noundef %28, i32 noundef %29, ptr noundef %30, i32 noundef %32, i32 noundef 1, i32 noundef 0)
  %34 = load ptr, ptr %10, align 8
  %35 = load i32, ptr @hf_docsis_rngrsp_trans_eq_enc_scdma_tdma_reserved, align 4
  %36 = load ptr, ptr %5, align 8
  %37 = load i32, ptr %7, align 4
  %38 = add i32 %37, 3
  %39 = call ptr @proto_tree_add_item(ptr noundef %34, i32 noundef %35, ptr noundef %36, i32 noundef %38, i32 noundef 1, i32 noundef 0)
  store i16 4, ptr %9, align 2
  br label %40

40:                                               ; preds = %86, %4
  %41 = load i16, ptr %9, align 2
  %42 = zext i16 %41 to i32
  %43 = load i16, ptr %8, align 2
  %44 = zext i16 %43 to i32
  %45 = icmp slt i32 %42, %44
  br i1 %45, label %46, label %91

46:                                               ; preds = %40
  call void @llvm.lifetime.start.p0(i64 4, ptr %12) #6
  call void @llvm.lifetime.start.p0(i64 4, ptr %13) #6
  %47 = load ptr, ptr %10, align 8
  %48 = load ptr, ptr %5, align 8
  %49 = load i32, ptr %7, align 4
  %50 = load i16, ptr %9, align 2
  %51 = zext i16 %50 to i32
  %52 = add i32 %49, %51
  %53 = load i32, ptr @ett_docsis_rngrsp_tlv_transmit_equalization_encodings_coef, align 4
  %54 = load i16, ptr %9, align 2
  %55 = zext i16 %54 to i32
  %56 = sdiv i32 %55, 4
  %57 = call ptr (ptr, ptr, i32, i32, i32, ptr, ptr, ...) @proto_tree_add_subtree_format(ptr noundef %47, ptr noundef %48, i32 noundef %52, i32 noundef 4, i32 noundef %53, ptr noundef null, ptr noundef @.str.2157, i32 noundef %56)
  store ptr %57, ptr %11, align 8
  %58 = load ptr, ptr %11, align 8
  %59 = load i32, ptr @hf_docsis_rngrsp_trans_eq_enc_coef_real, align 4
  %60 = load ptr, ptr %5, align 8
  %61 = load i32, ptr %7, align 4
  %62 = load i16, ptr %9, align 2
  %63 = zext i16 %62 to i32
  %64 = add i32 %61, %63
  %65 = call ptr @proto_tree_add_item_ret_int(ptr noundef %58, i32 noundef %59, ptr noundef %60, i32 noundef %64, i32 noundef 2, i32 noundef 0, ptr noundef %12)
  %66 = load ptr, ptr %11, align 8
  %67 = load i32, ptr @hf_docsis_rngrsp_trans_eq_enc_coef_imag, align 4
  %68 = load ptr, ptr %5, align 8
  %69 = load i32, ptr %7, align 4
  %70 = load i16, ptr %9, align 2
  %71 = zext i16 %70 to i32
  %72 = add i32 %69, %71
  %73 = add i32 %72, 2
  %74 = call ptr @proto_tree_add_item_ret_int(ptr noundef %66, i32 noundef %67, ptr noundef %68, i32 noundef %73, i32 noundef 2, i32 noundef 0, ptr noundef %13)
  %75 = load ptr, ptr %11, align 8
  %76 = load i32, ptr %12, align 4
  %77 = trunc i32 %76 to i16
  %78 = sext i16 %77 to i32
  %79 = sitofp i32 %78 to double
  %80 = fdiv double %79, 1.638400e+04
  %81 = load i32, ptr %13, align 4
  %82 = trunc i32 %81 to i16
  %83 = sext i16 %82 to i32
  %84 = sitofp i32 %83 to double
  %85 = fdiv double %84, 1.638400e+04
  call void (ptr, ptr, ...) @proto_item_append_text(ptr noundef %75, ptr noundef @.str.2158, double noundef %80, double noundef %85)
  call void @llvm.lifetime.end.p0(i64 4, ptr %13) #6
  call void @llvm.lifetime.end.p0(i64 4, ptr %12) #6
  br label %86

86:                                               ; preds = %46
  %87 = load i16, ptr %9, align 2
  %88 = zext i16 %87 to i32
  %89 = add i32 %88, 4
  %90 = trunc i32 %89 to i16
  store i16 %90, ptr %9, align 2
  br label %40, !llvm.loop !23

91:                                               ; preds = %40
  call void @llvm.lifetime.end.p0(i64 8, ptr %11) #6
  call void @llvm.lifetime.end.p0(i64 8, ptr %10) #6
  call void @llvm.lifetime.end.p0(i64 2, ptr %9) #6
  ret void
}