; Function Attrs: null_pointer_is_valid sspstrong uwtable
define internal fastcc void @dissect_rngrsp_transmit_equalization_encodings_scdma_tdma(ptr noundef nonnull %0, ptr noundef %1, i32 noundef %2, i16 noundef zeroext %3) unnamed_addr #0 {
  %5 = alloca i32, align 4
  %6 = alloca i32, align 4
  %7 = load i32, ptr @ett_docsis_rngrsp_tlv_transmit_equalization_encodings, align 4
  %8 = tail call ptr @proto_item_add_subtree(ptr noundef %1, i32 noundef %7)
  %9 = load i32, ptr @hf_docsis_rngrsp_trans_eq_enc_scdma_tdma_main_tap_location, align 4
  %10 = tail call ptr @proto_tree_add_item(ptr noundef %8, i32 noundef %9, ptr noundef nonnull %0, i32 noundef %2, i32 noundef 1, i32 noundef 0)
  %11 = load i32, ptr @hf_docsis_rngrsp_trans_eq_enc_scdma_tdma_number_of_forward_taps_per_symbol, align 4
  %12 = add i32 %2, 1
  %13 = tail call ptr @proto_tree_add_item(ptr noundef %8, i32 noundef %11, ptr noundef nonnull %0, i32 noundef %12, i32 noundef 1, i32 noundef 0)
  %14 = load i32, ptr @hf_docsis_rngrsp_trans_eq_enc_scdma_tdma_number_of_forward_taps_n, align 4
  %15 = add i32 %2, 2
  %16 = tail call ptr @proto_tree_add_item(ptr noundef %8, i32 noundef %14, ptr noundef nonnull %0, i32 noundef %15, i32 noundef 1, i32 noundef 0)
  %17 = load i32, ptr @hf_docsis_rngrsp_trans_eq_enc_scdma_tdma_reserved, align 4
  %18 = add i32 %2, 3
  %19 = tail call ptr @proto_tree_add_item(ptr noundef %8, i32 noundef %17, ptr noundef nonnull %0, i32 noundef %18, i32 noundef 1, i32 noundef 0)
  %20 = zext i16 %3 to i32
  %21 = icmp ugt i16 %3, 4
  br i1 %21, label %.lr.ph, label %._crit_edge

.lr.ph:                                           ; preds = %4, %.lr.ph
  %22 = phi i32 [ %41, %.lr.ph ], [ 4, %4 ]
  call void @llvm.lifetime.start.p0(i64 4, ptr nonnull %5) #6
  call void @llvm.lifetime.start.p0(i64 4, ptr nonnull %6) #6
  %23 = add i32 %22, %2
  %24 = load i32, ptr @ett_docsis_rngrsp_tlv_transmit_equalization_encodings_coef, align 4
  %25 = lshr i32 %22, 2
  %26 = call ptr (ptr, ptr, i32, i32, i32, ptr, ptr, ...) @proto_tree_add_subtree_format(ptr noundef %8, ptr noundef nonnull %0, i32 noundef %23, i32 noundef 4, i32 noundef %24, ptr noundef null, ptr noundef nonnull @.str.2157, i32 noundef %25)
  %27 = load i32, ptr @hf_docsis_rngrsp_trans_eq_enc_coef_real, align 4
  %28 = call ptr @proto_tree_add_item_ret_int(ptr noundef %26, i32 noundef %27, ptr noundef nonnull %0, i32 noundef %23, i32 noundef 2, i32 noundef 0, ptr noundef nonnull %5)
  %29 = load i32, ptr @hf_docsis_rngrsp_trans_eq_enc_coef_imag, align 4
  %30 = add i32 %23, 2
  %31 = call ptr @proto_tree_add_item_ret_int(ptr noundef %26, i32 noundef %29, ptr noundef nonnull %0, i32 noundef %30, i32 noundef 2, i32 noundef 0, ptr noundef nonnull %6)
  %32 = load i32, ptr %5, align 4
  %sext = shl i32 %32, 16
  %33 = ashr exact i32 %sext, 16
  %34 = sitofp i32 %33 to double
  %35 = fmul double %34, 0x3F10000000000000
  %36 = load i32, ptr %6, align 4
  %sext30 = shl i32 %36, 16
  %37 = ashr exact i32 %sext30, 16
  %38 = sitofp i32 %37 to double
  %39 = fmul double %38, 0x3F10000000000000
  call void (ptr, ptr, ...) @proto_item_append_text(ptr noundef %26, ptr noundef nonnull @.str.2158, double noundef %35, double noundef %39)
  call void @llvm.lifetime.end.p0(i64 4, ptr nonnull %6) #6
  call void @llvm.lifetime.end.p0(i64 4, ptr nonnull %5) #6
  %40 = add nuw nsw i32 %22, 4
  %41 = and i32 %40, 65535
  %42 = icmp samesign ult i32 %41, %20
  br i1 %42, label %.lr.ph, label %._crit_edge, !llvm.loop !62

._crit_edge:                                      ; preds = %.lr.ph, %4
  ret void
}